; Function Attrs: mustprogress uwtable
define dso_local noundef zeroext i1 @_ZN14ManifestParser8ParseLetEPNSt7__cxx1112basic_stringIcSt11char_traitsIcESaIcEEEP10EvalStringS6_(ptr noundef nonnull align 8 dereferenceable(85) %0, ptr noundef %1, ptr noundef %2, ptr noundef %3) local_unnamed_addr #1 align 2 personality ptr @__gxx_personality_v0 {
  %5 = alloca %"class.std::__cxx11::basic_string", align 8
  %6 = alloca %"class.std::allocator.24", align 1
  %7 = getelementptr inbounds i8, ptr %0, i64 24
  %8 = tail call noundef zeroext i1 @_ZN5Lexer9ReadIdentEPNSt7__cxx1112basic_stringIcSt11char_traitsIcESaIcEEE(ptr noundef nonnull align 8 dereferenceable(48) %7, ptr noundef %1)
  br i1 %8, label %19, label %9

9:                                                ; preds = %4
  call void @_ZNSaIcEC1Ev(ptr noundef nonnull align 1 dereferenceable(1) %6) #15
  %10 = invoke noundef ptr @_ZNSt7__cxx1112basic_stringIcSt11char_traitsIcESaIcEE13_M_local_dataEv(ptr noundef nonnull align 8 dereferenceable(32) %5)
          to label %.noexc unwind label %15

.noexc:                                           ; preds = %9
  invoke void @_ZNSt7__cxx1112basic_stringIcSt11char_traitsIcESaIcEE12_Alloc_hiderC1EPcRKS3_(ptr noundef nonnull align 8 dereferenceable(8) %5, ptr noundef %10, ptr noundef nonnull align 1 dereferenceable(1) %6)
          to label %.noexc11 unwind label %15

.noexc11:                                         ; preds = %.noexc
  invoke void @_ZNSt7__cxx1112basic_stringIcSt11char_traitsIcESaIcEE12_M_constructIPKcEEvT_S8_St20forward_iterator_tag(ptr noundef nonnull align 8 dereferenceable(32) %5, ptr noundef nonnull @.str.16, ptr noundef nonnull getelementptr inbounds ([23 x i8], ptr @.str.16, i64 0, i64 22))
          to label %_ZNSt7__cxx1112basic_stringIcSt11char_traitsIcESaIcEEC2IS3_EEPKcRKS3_.exit unwind label %11

11:                                               ; preds = %.noexc11
  %12 = landingpad { ptr, i32 }
          cleanup
  call void @_ZNSaIcED2Ev(ptr noundef nonnull align 1 dereferenceable(1) %5) #15
  br label %.body

_ZNSt7__cxx1112basic_stringIcSt11char_traitsIcESaIcEEC2IS3_EEPKcRKS3_.exit: ; preds = %.noexc11
  %13 = invoke noundef zeroext i1 @_ZN5Lexer5ErrorERKNSt7__cxx1112basic_stringIcSt11char_traitsIcESaIcEEEPS5_(ptr noundef nonnull align 8 dereferenceable(48) %7, ptr noundef nonnull align 8 dereferenceable(32) %5, ptr noundef %3)
          to label %14 unwind label %17

14:                                               ; preds = %_ZNSt7__cxx1112basic_stringIcSt11char_traitsIcESaIcEEC2IS3_EEPKcRKS3_.exit
  call void @_ZNSt7__cxx1112basic_stringIcSt11char_traitsIcESaIcEED1Ev(ptr noundef nonnull align 8 dereferenceable(32) %5) #15
  call void @_ZNSaIcED1Ev(ptr noundef nonnull align 1 dereferenceable(1) %6) #15
  br label %23

15:                                               ; preds = %.noexc, %9
  %16 = landingpad { ptr, i32 }
          cleanup
  br label %.body

17:                                               ; preds = %_ZNSt7__cxx1112basic_stringIcSt11char_traitsIcESaIcEEC2IS3_EEPKcRKS3_.exit
  %18 = landingpad { ptr, i32 }
          cleanup
  call void @_ZNSt7__cxx1112basic_stringIcSt11char_traitsIcESaIcEED1Ev(ptr noundef nonnull align 8 dereferenceable(32) %5) #15
  br label %.body

.body:                                            ; preds = %15, %11, %17
  %.pn = phi { ptr, i32 } [ %18, %17 ], [ %16, %15 ], [ %12, %11 ]
  call void @_ZNSaIcED1Ev(ptr noundef nonnull align 1 dereferenceable(1) %6) #15
  resume { ptr, i32 } %.pn

19:                                               ; preds = %4
  %20 = tail call noundef zeroext i1 @_ZN6Parser11ExpectTokenEN5Lexer5TokenEPNSt7__cxx1112basic_stringIcSt11char_traitsIcESaIcEEE(ptr noundef nonnull align 8 dereferenceable(72) %0, i32 noundef 4, ptr noundef %3)
  br i1 %20, label %21, label %23

21:                                               ; preds = %19
  %22 = tail call noundef zeroext i1 @_ZN5Lexer14ReadEvalStringEP10EvalStringbPNSt7__cxx1112basic_stringIcSt11char_traitsIcESaIcEEE(ptr noundef nonnull align 8 dereferenceable(48) %7, ptr noundef %2, i1 noundef zeroext false, ptr noundef %3)
  br label %23

23:                                               ; preds = %21, %19, %14
  %.09 = phi i1 [ %13, %14 ], [ false, %19 ], [ %22, %21 ]
  ret i1 %.09
}